target datalayout = "e-m:e-p270:32:32-p271:32:32-p272:64:64-i64:64-i128:128-f80:128-n8:16:32:64-S128"
target triple = "x86_64-unknown-linux-gnu"

; Function Attrs: inlinehint mustprogress nounwind uwtable
define linkonce_odr noundef double @_ZN8QuantLib7squaredIdEET_S1_(double noundef %x) #5 comdat {
entry:
  %x.addr = alloca double, align 8
  store double %x, ptr %x.addr, align 8, !tbaa !14
  %0 = load double, ptr %x.addr, align 8, !tbaa !14
  %1 = load double, ptr %x.addr, align 8, !tbaa !14
  %mul = fmul double %0, %1
  ret double %mul
}

; Function Attrs: mustprogress uwtable
define internal noundef double @_ZN8QuantLib12_GLOBAL__N_16phi_SSEddddddd(double noundef %S, double noundef %gamma, double noundef %H, double noundef %I, double noundef %rT, double noundef %bT, double noundef %v) #2 {
entry:
  %S.addr = alloca double, align 8
  %gamma.addr = alloca double, align 8
  %H.addr = alloca double, align 8
  %I.addr = alloca double, align 8
  %rT.addr = alloca double, align 8
  %bT.addr = alloca double, align 8
  %v.addr = alloca double, align 8
  %lsh = alloca double, align 8
  %lis = alloca double, align 8
  %sv = alloca double, align 8
  %ex = alloca double, align 8
  %ey = alloca double, align 8
  store double %S, ptr %S.addr, align 8, !tbaa !14
  store double %gamma, ptr %gamma.addr, align 8, !tbaa !14
  store double %H, ptr %H.addr, align 8, !tbaa !14
  store double %I, ptr %I.addr, align 8, !tbaa !14
  store double %rT, ptr %rT.addr, align 8, !tbaa !14
  store double %bT, ptr %bT.addr, align 8, !tbaa !14
  store double %v, ptr %v.addr, align 8, !tbaa !14
  call void @llvm.lifetime.start.p0(i64 8, ptr %lsh) #14
  %0 = load double, ptr %S.addr, align 8, !tbaa !14
  %1 = load double, ptr %H.addr, align 8, !tbaa !14
  %div = fdiv double %0, %1
  %call = call double @log(double noundef %div) #14, !tbaa !25
  store double %call, ptr %lsh, align 8, !tbaa !14
  call void @llvm.lifetime.start.p0(i64 8, ptr %lis) #14
  %2 = load double, ptr %I.addr, align 8, !tbaa !14
  %3 = load double, ptr %S.addr, align 8, !tbaa !14
  %div1 = fdiv double %2, %3
  %call2 = call double @log(double noundef %div1) #14, !tbaa !25
  store double %call2, ptr %lis, align 8, !tbaa !14
  call void @llvm.lifetime.start.p0(i64 8, ptr %sv) #14
  %4 = load double, ptr %v.addr, align 8, !tbaa !14
  %call3 = call double @sqrt(double noundef %4) #14, !tbaa !25
  store double %call3, ptr %sv, align 8, !tbaa !14
  call void @llvm.lifetime.start.p0(i64 8, ptr %ex) #14
  %5 = load double, ptr %bT.addr, align 8, !tbaa !14
  %6 = load double, ptr %v.addr, align 8, !tbaa !14
  %neg = fneg double %6
  %7 = call double @llvm.fmuladd.f64(double 2.000000e+00, double %5, double %neg)
  %8 = load double, ptr %gamma.addr, align 8, !tbaa !14
  %mul = fmul double 2.000000e+00, %8
  %9 = load double, ptr %v.addr, align 8, !tbaa !14
  %10 = call double @llvm.fmuladd.f64(double %mul, double %9, double %7)
  %11 = load double, ptr %lis, align 8, !tbaa !14
  %12 = call double @llvm.fmuladd.f64(double 4.000000e+00, double %11, double %10)
  %13 = load double, ptr %lsh, align 8, !tbaa !14
  %14 = call double @llvm.fmuladd.f64(double 2.000000e+00, double %13, double %12)
  %call7 = call noundef double @_ZN8QuantLib7squaredIdEET_S1_(double noundef %14)
  %15 = load double, ptr %v.addr, align 8, !tbaa !14
  %mul8 = fmul double 8.000000e+00, %15
  %div9 = fdiv double %call7, %mul8
  %call10 = call double @exp(double noundef %div9) #14, !tbaa !25
  store double %call10, ptr %ex, align 8, !tbaa !14
  call void @llvm.lifetime.start.p0(i64 8, ptr %ey) #14
  %16 = load double, ptr %bT.addr, align 8, !tbaa !14
  %17 = load double, ptr %gamma.addr, align 8, !tbaa !14
  %18 = call double @llvm.fmuladd.f64(double 2.000000e+00, double %17, double -1.000000e+00)
  %19 = load double, ptr %v.addr, align 8, !tbaa !14
  %mul13 = fmul double %18, %19
  %20 = call double @llvm.fmuladd.f64(double 2.000000e+00, double %16, double %mul13)
  %21 = load double, ptr %lsh, align 8, !tbaa !14
  %22 = call double @llvm.fmuladd.f64(double 2.000000e+00, double %21, double %20)
  %call15 = call noundef double @_ZN8QuantLib7squaredIdEET_S1_(double noundef %22)
  %23 = load double, ptr %v.addr, align 8, !tbaa !14
  %mul16 = fmul double 8.000000e+00, %23
  %div17 = fdiv double %call15, %mul16
  %call18 = call double @exp(double noundef %div17) #14, !tbaa !25
  store double %call18, ptr %ey, align 8, !tbaa !14
  %24 = load double, ptr %bT.addr, align 8, !tbaa !14
  %25 = load double, ptr %gamma.addr, align 8, !tbaa !14
  %26 = load double, ptr %rT.addr, align 8, !tbaa !14
  %neg20 = fneg double %26
  %27 = call double @llvm.fmuladd.f64(double %24, double %25, double %neg20)
  %28 = load double, ptr %gamma.addr, align 8, !tbaa !14
  %add = fadd double -1.000000e+00, %28
  %29 = load double, ptr %gamma.addr, align 8, !tbaa !14
  %mul21 = fmul double %add, %29
  %30 = load double, ptr %v.addr, align 8, !tbaa !14
  %mul22 = fmul double %mul21, %30
  %div23 = fdiv double %mul22, 2.000000e+00
  %add24 = fadd double %27, %div23
  %call25 = call double @exp(double noundef %add24) #14, !tbaa !25
  %31 = load double, ptr %I.addr, align 8, !tbaa !14
  %mul26 = fmul double 0x3FF6A09E667F3BCD, %31
  %32 = load double, ptr %v.addr, align 8, !tbaa !14
  %mul27 = fmul double %mul26, %32
  %33 = load double, ptr %sv, align 8, !tbaa !14
  %mul28 = fmul double %mul27, %33
  %34 = load double, ptr %ey, align 8, !tbaa !14
  %div29 = fdiv double %mul28, %34
  %35 = load double, ptr %I.addr, align 8, !tbaa !14
  %36 = load double, ptr %S.addr, align 8, !tbaa !14
  %div30 = fdiv double %35, %36
  %37 = load double, ptr %gamma.addr, align 8, !tbaa !14
  %38 = load double, ptr %bT.addr, align 8, !tbaa !14
  %39 = load double, ptr %v.addr, align 8, !tbaa !14
  %div31 = fdiv double %38, %39
  %add32 = fadd double %37, %div31
  %mul33 = fmul double 2.000000e+00, %add32
  %call34 = call double @pow(double noundef %div30, double noundef %mul33) #14, !tbaa !25
  %mul35 = fmul double 0x4006A09E667F3BCD, %call34
  %40 = load double, ptr %S.addr, align 8, !tbaa !14
  %mul36 = fmul double %mul35, %40
  %41 = load double, ptr %sv, align 8, !tbaa !14
  %mul37 = fmul double %mul36, %41
  %42 = load double, ptr %bT.addr, align 8, !tbaa !14
  %43 = load double, ptr %gamma.addr, align 8, !tbaa !14
  %44 = call double @llvm.fmuladd.f64(double 2.000000e+00, double %43, double -1.000000e+00)
  %45 = load double, ptr %v.addr, align 8, !tbaa !14
  %mul40 = fmul double %44, %45
  %46 = call double @llvm.fmuladd.f64(double 2.000000e+00, double %42, double %mul40)
  %mul41 = fmul double %mul37, %46
  %47 = load double, ptr %ex, align 8, !tbaa !14
  %div42 = fdiv double %mul41, %47
  %add43 = fadd double %div29, %div42
  %call44 = call double @sqrt(double noundef 0x400921FB54442D18) #14, !tbaa !25
  %mul45 = fmul double 2.000000e+00, %call44
  %48 = load double, ptr %I.addr, align 8, !tbaa !14
  %49 = load double, ptr %S.addr, align 8, !tbaa !14
  %div46 = fdiv double %48, %49
  %50 = load double, ptr %gamma.addr, align 8, !tbaa !14
  %51 = load double, ptr %bT.addr, align 8, !tbaa !14
  %52 = load double, ptr %v.addr, align 8, !tbaa !14
  %div47 = fdiv double %51, %52
  %add48 = fadd double %50, %div47
  %mul49 = fmul double 2.000000e+00, %add48
  %call50 = call double @pow(double noundef %div46, double noundef %mul49) #14, !tbaa !25
  %mul51 = fmul double %mul45, %call50
  %53 = load double, ptr %S.addr, align 8, !tbaa !14
  %mul52 = fmul double %mul51, %53
  %54 = load double, ptr %bT.addr, align 8, !tbaa !14
  %55 = load double, ptr %gamma.addr, align 8, !tbaa !14
  %56 = load double, ptr %v.addr, align 8, !tbaa !14
  %57 = call double @llvm.fmuladd.f64(double %55, double %56, double %54)
  %mul54 = fmul double %mul52, %57
  %58 = load double, ptr %bT.addr, align 8, !tbaa !14
  %59 = load double, ptr %gamma.addr, align 8, !tbaa !14
  %60 = call double @llvm.fmuladd.f64(double 2.000000e+00, double %59, double -1.000000e+00)
  %61 = load double, ptr %v.addr, align 8, !tbaa !14
  %mul57 = fmul double %60, %61
  %62 = call double @llvm.fmuladd.f64(double 2.000000e+00, double %58, double %mul57)
  %mul58 = fmul double %mul54, %62
  %63 = load double, ptr %bT.addr, align 8, !tbaa !14
  %64 = load double, ptr %v.addr, align 8, !tbaa !14
  %neg60 = fneg double %64
  %65 = call double @llvm.fmuladd.f64(double 2.000000e+00, double %63, double %neg60)
  %66 = load double, ptr %gamma.addr, align 8, !tbaa !14
  %mul61 = fmul double 2.000000e+00, %66
  %67 = load double, ptr %v.addr, align 8, !tbaa !14
  %68 = call double @llvm.fmuladd.f64(double %mul61, double %67, double %65)
  %69 = load double, ptr %lis, align 8, !tbaa !14
  %70 = call double @llvm.fmuladd.f64(double 4.000000e+00, double %69, double %68)
  %71 = load double, ptr %lsh, align 8, !tbaa !14
  %72 = call double @llvm.fmuladd.f64(double 2.000000e+00, double %71, double %70)
  %73 = load double, ptr %sv, align 8, !tbaa !14
  %mul65 = fmul double 0x4006A09E667F3BCD, %73
  %div66 = fdiv double %72, %mul65
  %call67 = call double @erfc(double noundef %div66) #14, !tbaa !25
  %neg69 = fneg double %mul58
  %74 = call double @llvm.fmuladd.f64(double %neg69, double %call67, double %add43)
  %75 = load double, ptr %I.addr, align 8, !tbaa !14
  %mul70 = fmul double 0x3FF6A09E667F3BCD, %75
  %76 = load double, ptr %sv, align 8, !tbaa !14
  %mul71 = fmul double %mul70, %76
  %77 = load double, ptr %bT.addr, align 8, !tbaa !14
  %78 = load double, ptr %gamma.addr, align 8, !tbaa !14
  %add72 = fadd double -5.000000e-01, %78
  %79 = load double, ptr %v.addr, align 8, !tbaa !14
  %80 = call double @llvm.fmuladd.f64(double %add72, double %79, double %77)
  %81 = load double, ptr %lsh, align 8, !tbaa !14
  %add74 = fadd double %80, %81
  %mul75 = fmul double %mul71, %add74
  %82 = load double, ptr %ey, align 8, !tbaa !14
  %div76 = fdiv double %mul75, %82
  %add77 = fadd double %74, %div76
  %83 = load double, ptr %I.addr, align 8, !tbaa !14
  %84 = load double, ptr %S.addr, align 8, !tbaa !14
  %div78 = fdiv double %83, %84
  %85 = load double, ptr %gamma.addr, align 8, !tbaa !14
  %86 = load double, ptr %bT.addr, align 8, !tbaa !14
  %87 = load double, ptr %v.addr, align 8, !tbaa !14
  %div79 = fdiv double %86, %87
  %add80 = fadd double %85, %div79
  %mul81 = fmul double 2.000000e+00, %add80
  %call82 = call double @pow(double noundef %div78, double noundef %mul81) #14, !tbaa !25
  %88 = load double, ptr %S.addr, align 8, !tbaa !14
  %mul83 = fmul double %call82, %88
  %89 = load double, ptr %sv, align 8, !tbaa !14
  %mul84 = fmul double %mul83, %89
  %90 = load double, ptr %bT.addr, align 8, !tbaa !14
  %91 = load double, ptr %v.addr, align 8, !tbaa !14
  %mul86 = fmul double 3.000000e+00, %91
  %neg87 = fneg double %mul86
  %92 = call double @llvm.fmuladd.f64(double 2.000000e+00, double %90, double %neg87)
  %93 = load double, ptr %gamma.addr, align 8, !tbaa !14
  %mul88 = fmul double 2.000000e+00, %93
  %94 = load double, ptr %v.addr, align 8, !tbaa !14
  %95 = call double @llvm.fmuladd.f64(double %mul88, double %94, double %92)
  %96 = load double, ptr %lis, align 8, !tbaa !14
  %97 = call double @llvm.fmuladd.f64(double 4.000000e+00, double %96, double %95)
  %98 = load double, ptr %lsh, align 8, !tbaa !14
  %99 = call double @llvm.fmuladd.f64(double 2.000000e+00, double %98, double %97)
  %mul92 = fmul double %mul84, %99
  %100 = load double, ptr %ex, align 8, !tbaa !14
  %mul93 = fmul double 0x3FF6A09E667F3BCD, %100
  %div94 = fdiv double %mul92, %mul93
  %sub = fsub double %add77, %div94
  %mul95 = fmul double %call25, %sub
  %101 = load double, ptr %I.addr, align 8, !tbaa !14
  %mul96 = fmul double 2.000000e+00, %101
  %mul97 = fmul double %mul96, 0x3FFC5BF891B4EF6B
  %102 = load double, ptr %S.addr, align 8, !tbaa !14
  %103 = load double, ptr %v.addr, align 8, !tbaa !14
  %mul98 = fmul double %102, %103
  %call99 = call noundef double @_ZN8QuantLib7squaredIdEET_S1_(double noundef %mul98)
  %mul100 = fmul double %mul97, %call99
  %div101 = fdiv double %mul95, %mul100
  call void @llvm.lifetime.end.p0(i64 8, ptr %ey) #14
  call void @llvm.lifetime.end.p0(i64 8, ptr %ex) #14
  call void @llvm.lifetime.end.p0(i64 8, ptr %sv) #14
  call void @llvm.lifetime.end.p0(i64 8, ptr %lis) #14
  call void @llvm.lifetime.end.p0(i64 8, ptr %lsh) #14
  ret double %div101
}