; Function Attrs: mustprogress nounwind uwtable
define internal fastcc noundef double @_ZN8QuantLib12_GLOBAL__N_16phi_SSEddddddd(double noundef %S, double noundef %gamma, double noundef %H, double noundef %I, double noundef %rT, double noundef %bT, double noundef %v) unnamed_addr #10 {
entry:
  %div = fdiv double %S, %H
  %call = tail call double @log(double noundef %div) #28, !tbaa !46
  %div1 = fdiv double %I, %S
  %call2 = tail call double @log(double noundef %div1) #28, !tbaa !46
  %call3 = tail call double @sqrt(double noundef %v) #28, !tbaa !46
  %neg = fneg double %v
  %0 = tail call double @llvm.fmuladd.f64(double %bT, double 2.000000e+00, double %neg)
  %mul = fmul double %gamma, 2.000000e+00
  %1 = tail call double @llvm.fmuladd.f64(double %mul, double %v, double %0)
  %2 = tail call double @llvm.fmuladd.f64(double %call2, double 4.000000e+00, double %1)
  %3 = tail call double @llvm.fmuladd.f64(double %call, double 2.000000e+00, double %2)
  %mul.i = fmul double %3, %3
  %mul8 = fmul double %v, 8.000000e+00
  %div9 = fdiv double %mul.i, %mul8
  %call10 = tail call double @exp(double noundef %div9) #28, !tbaa !46
  %4 = tail call double @llvm.fmuladd.f64(double %gamma, double 2.000000e+00, double -1.000000e+00)
  %mul13 = fmul double %4, %v
  %5 = tail call double @llvm.fmuladd.f64(double %bT, double 2.000000e+00, double %mul13)
  %6 = tail call double @llvm.fmuladd.f64(double %call, double 2.000000e+00, double %5)
  %mul.i70 = fmul double %6, %6
  %div17 = fdiv double %mul.i70, %mul8
  %call18 = tail call double @exp(double noundef %div17) #28, !tbaa !46
  %neg20 = fneg double %rT
  %7 = tail call double @llvm.fmuladd.f64(double %bT, double %gamma, double %neg20)
  %add = fadd double %gamma, -1.000000e+00
  %mul21 = fmul double %gamma, %add
  %mul22 = fmul double %mul21, %v
  %div23 = fmul double %mul22, 5.000000e-01
  %add24 = fadd double %7, %div23
  %call25 = tail call double @exp(double noundef %add24) #28, !tbaa !46
  %mul26 = fmul double %I, 0x3FF6A09E667F3BCD
  %mul27 = fmul double %mul26, %v
  %mul28 = fmul double %mul27, %call3
  %div29 = fdiv double %mul28, %call18
  %div31 = fdiv double %bT, %v
  %add32 = fadd double %gamma, %div31
  %mul33 = fmul double %add32, 2.000000e+00
  %call34 = tail call double @pow(double noundef %div1, double noundef %mul33) #28, !tbaa !46
  %mul35 = fmul double %call34, 0x4006A09E667F3BCD
  %mul36 = fmul double %S, %mul35
  %mul37 = fmul double %call3, %mul36
  %mul41 = fmul double %5, %mul37
  %div42 = fdiv double %mul41, %call10
  %add43 = fadd double %div29, %div42
  %call50 = tail call double @pow(double noundef %div1, double noundef %mul33) #28, !tbaa !46
  %mul51 = fmul double %call50, 0x400C5BF891B4EF6A
  %mul52 = fmul double %S, %mul51
  %8 = tail call double @llvm.fmuladd.f64(double %gamma, double %v, double %bT)
  %mul54 = fmul double %8, %mul52
  %mul65 = fmul double %call3, 0x4006A09E667F3BCD
  %div66 = fdiv double %3, %mul65
  %call67 = tail call double @erfc(double noundef %div66) #28, !tbaa !46
  %9 = fneg double %5
  %neg69 = fmul double %mul54, %9
  %10 = tail call double @llvm.fmuladd.f64(double %neg69, double %call67, double %add43)
  %mul71 = fmul double %mul26, %call3
  %add72 = fadd double %gamma, -5.000000e-01
  %11 = tail call double @llvm.fmuladd.f64(double %add72, double %v, double %bT)
  %add74 = fadd double %11, %call
  %mul75 = fmul double %add74, %mul71
  %div76 = fdiv double %mul75, %call18
  %add77 = fadd double %div76, %10
  %call82 = tail call double @pow(double noundef %div1, double noundef %mul33) #28, !tbaa !46
  %mul83 = fmul double %S, %call82
  %mul84 = fmul double %call3, %mul83
  %neg87 = fmul double %v, -3.000000e+00
  %12 = tail call double @llvm.fmuladd.f64(double %bT, double 2.000000e+00, double %neg87)
  %13 = tail call double @llvm.fmuladd.f64(double %mul, double %v, double %12)
  %14 = tail call double @llvm.fmuladd.f64(double %call2, double 4.000000e+00, double %13)
  %15 = tail call double @llvm.fmuladd.f64(double %call, double 2.000000e+00, double %14)
  %mul92 = fmul double %15, %mul84
  %mul93 = fmul double %call10, 0x3FF6A09E667F3BCD
  %div94 = fdiv double %mul92, %mul93
  %sub = fsub double %add77, %div94
  %mul95 = fmul double %call25, %sub
  %mul96 = fmul double %I, 2.000000e+00
  %mul97 = fmul double %mul96, 0x3FFC5BF891B4EF6B
  %mul98 = fmul double %S, %v
  %mul.i71 = fmul double %mul98, %mul98
  %mul100 = fmul double %mul97, %mul.i71
  %div101 = fdiv double %mul95, %mul100
  ret double %div101
}